target datalayout = "e-m:e-p270:32:32-p271:32:32-p272:64:64-i64:64-i128:128-f80:128-n8:16:32:64-S128"
target triple = "x86_64-pc-linux-gnu"

%struct.AVFilterContext = type { ptr, ptr, ptr, ptr, ptr, i32, ptr, ptr, i32, ptr, ptr, i32, i32, ptr, ptr, ptr, ptr, i32, ptr, i32, i32 }
%struct.VAAPIVPPContext = type { ptr, ptr, ptr, i32, i32, i32, ptr, ptr, %struct._VARectangle, i32, i32, i32, [10 x i32], i32, i32, ptr, ptr }
%struct._VARectangle = type { i16, i16, i16, i16 }
%struct.AVVAAPIDeviceContext = type { ptr, i32 }
%struct.AVChannelLayout = type { i32, i32, %union.anon, ptr }
%union.anon = type { i64 }
%struct.AVRational = type { i32, i32 }
%struct._VAProcPipelineParameterBuffer = type { i32, ptr, i32, ptr, i32, i32, i32, i32, ptr, i32, ptr, i32, ptr, i32, i32, ptr, i32, ptr, i32, i32, i32, %struct._VAProcColorProperties, %struct._VAProcColorProperties, i32, ptr, [16 x i32] }
%struct._VAProcColorProperties = type { i8, i8, i8, i8, i8, [3 x i8] }
%struct.AVFrame = type { [8 x ptr], [8 x i32], ptr, i32, i32, i32, i32, i32, %struct.AVRational, i64, i64, %struct.AVRational, i32, ptr, i32, i32, [8 x ptr], ptr, i32, ptr, i32, i32, i32, i32, i32, i32, i32, i64, ptr, i32, ptr, ptr, i64, i64, i64, i64, ptr, %struct.AVChannelLayout, i64 }

@.str.20 = private unnamed_addr constant [40 x i8] c"Failed to attach new picture: %d (%s).\0A\00", align 1
@.str.21 = private unnamed_addr constant [46 x i8] c"Failed to start picture processing: %d (%s).\0A\00", align 1
@.str.22 = private unnamed_addr constant [43 x i8] c"Failed to free parameter buffer: %d (%s).\0A\00", align 1
@.str.28 = private unnamed_addr constant [45 x i8] c"Failed to create parameter buffer: %d (%s).\0A\00", align 1
@.str.29 = private unnamed_addr constant [35 x i8] c"Pipeline parameter buffer is %#x.\0A\00", align 1
@.str.30 = private unnamed_addr constant [45 x i8] c"Failed to render parameter buffer: %d (%s).\0A\00", align 1

; Function Attrs: nounwind uwtable
define internal i32 @vaapi_vpp_render_single_pipeline_buffer(ptr noundef %0, ptr noundef %1, ptr noundef %2) #0 {
  %4 = alloca i32, align 4
  %5 = alloca ptr, align 8
  %6 = alloca ptr, align 8
  %7 = alloca ptr, align 8
  %8 = alloca ptr, align 8
  %9 = alloca i32, align 4
  %10 = alloca i32, align 4
  store ptr %0, ptr %5, align 8, !tbaa !4
  store ptr %1, ptr %6, align 8, !tbaa !104
  store ptr %2, ptr %7, align 8, !tbaa !134
  call void @llvm.lifetime.start.p0(i64 8, ptr %8) #7
  %11 = load ptr, ptr %5, align 8, !tbaa !4
  %12 = getelementptr inbounds nuw %struct.AVFilterContext, ptr %11, i32 0, i32 9
  %13 = load ptr, ptr %12, align 8, !tbaa !14
  store ptr %13, ptr %8, align 8, !tbaa !25
  call void @llvm.lifetime.start.p0(i64 4, ptr %9) #7
  %14 = load ptr, ptr %8, align 8, !tbaa !25
  %15 = getelementptr inbounds nuw %struct.VAAPIVPPContext, ptr %14, i32 0, i32 1
  %16 = load ptr, ptr %15, align 8, !tbaa !33
  %17 = getelementptr inbounds nuw %struct.AVVAAPIDeviceContext, ptr %16, i32 0, i32 0
  %18 = load ptr, ptr %17, align 8, !tbaa !34
  %19 = load ptr, ptr %8, align 8, !tbaa !25
  %20 = getelementptr inbounds nuw %struct.VAAPIVPPContext, ptr %19, i32 0, i32 5
  %21 = load i32, ptr %20, align 8, !tbaa !38
  %22 = load ptr, ptr %6, align 8, !tbaa !104
  %23 = load ptr, ptr %7, align 8, !tbaa !134
  %24 = call i32 @vaCreateBuffer(ptr noundef %18, i32 noundef %21, i32 noundef 41, i32 noundef 224, i32 noundef 1, ptr noundef %22, ptr noundef %23)
  store i32 %24, ptr %9, align 4, !tbaa !12
  %25 = load i32, ptr %9, align 4, !tbaa !12
  %26 = icmp ne i32 %25, 0
  br i1 %26, label %27, label %33

27:                                               ; preds = %3
  %28 = load ptr, ptr %5, align 8, !tbaa !4
  %29 = load i32, ptr %9, align 4, !tbaa !12
  %30 = load i32, ptr %9, align 4, !tbaa !12
  %31 = call ptr @vaErrorStr(i32 noundef %30)
  call void (ptr, i32, ptr, ...) @av_log(ptr noundef %28, i32 noundef 16, ptr noundef @.str.28, i32 noundef %29, ptr noundef %31)
  %32 = load ptr, ptr %7, align 8, !tbaa !134
  store i32 -1, ptr %32, align 4, !tbaa !12
  store i32 -5, ptr %4, align 4
  store i32 1, ptr %10, align 4
  br label %55

33:                                               ; preds = %3
  %34 = load ptr, ptr %5, align 8, !tbaa !4
  %35 = load ptr, ptr %7, align 8, !tbaa !134
  %36 = load i32, ptr %35, align 4, !tbaa !12
  call void (ptr, i32, ptr, ...) @av_log(ptr noundef %34, i32 noundef 48, ptr noundef @.str.29, i32 noundef %36)
  %37 = load ptr, ptr %8, align 8, !tbaa !25
  %38 = getelementptr inbounds nuw %struct.VAAPIVPPContext, ptr %37, i32 0, i32 1
  %39 = load ptr, ptr %38, align 8, !tbaa !33
  %40 = getelementptr inbounds nuw %struct.AVVAAPIDeviceContext, ptr %39, i32 0, i32 0
  %41 = load ptr, ptr %40, align 8, !tbaa !34
  %42 = load ptr, ptr %8, align 8, !tbaa !25
  %43 = getelementptr inbounds nuw %struct.VAAPIVPPContext, ptr %42, i32 0, i32 5
  %44 = load i32, ptr %43, align 8, !tbaa !38
  %45 = load ptr, ptr %7, align 8, !tbaa !134
  %46 = call i32 @vaRenderPicture(ptr noundef %41, i32 noundef %44, ptr noundef %45, i32 noundef 1)
  store i32 %46, ptr %9, align 4, !tbaa !12
  %47 = load i32, ptr %9, align 4, !tbaa !12
  %48 = icmp ne i32 %47, 0
  br i1 %48, label %49, label %54

49:                                               ; preds = %33
  %50 = load ptr, ptr %5, align 8, !tbaa !4
  %51 = load i32, ptr %9, align 4, !tbaa !12
  %52 = load i32, ptr %9, align 4, !tbaa !12
  %53 = call ptr @vaErrorStr(i32 noundef %52)
  call void (ptr, i32, ptr, ...) @av_log(ptr noundef %50, i32 noundef 16, ptr noundef @.str.30, i32 noundef %51, ptr noundef %53)
  store i32 -5, ptr %4, align 4
  store i32 1, ptr %10, align 4
  br label %55

54:                                               ; preds = %33
  store i32 0, ptr %4, align 4
  store i32 1, ptr %10, align 4
  br label %55

55:                                               ; preds = %54, %49, %27
  call void @llvm.lifetime.end.p0(i64 4, ptr %9) #7
  call void @llvm.lifetime.end.p0(i64 8, ptr %8) #7
  %56 = load i32, ptr %4, align 4
  ret i32 %56
}

; Function Attrs: inlinehint nounwind uwtable
define internal i32 @ff_vaapi_vpp_get_surface_id(ptr noundef %0) #3 {
  %2 = alloca ptr, align 8
  store ptr %0, ptr %2, align 8, !tbaa !106
  %3 = load ptr, ptr %2, align 8, !tbaa !106
  %4 = getelementptr inbounds nuw %struct.AVFrame, ptr %3, i32 0, i32 0
  %5 = getelementptr inbounds [8 x ptr], ptr %4, i64 0, i64 3
  %6 = load ptr, ptr %5, align 8, !tbaa !138
  %7 = ptrtoint ptr %6 to i64
  %8 = trunc i64 %7 to i32
  ret i32 %8
}

; Function Attrs: nounwind uwtable
define i32 @ff_vaapi_vpp_render_pictures(ptr noundef %0, ptr noundef %1, i32 noundef %2, ptr noundef %3) #0 {
  %5 = alloca i32, align 4
  %6 = alloca ptr, align 8
  %7 = alloca ptr, align 8
  %8 = alloca i32, align 4
  %9 = alloca ptr, align 8
  %10 = alloca ptr, align 8
  %11 = alloca ptr, align 8
  %12 = alloca i32, align 4
  %13 = alloca i32, align 4
  %14 = alloca i32, align 4
  %15 = alloca i32, align 4
  %16 = alloca i32, align 4
  %17 = alloca i32, align 4
  store ptr %0, ptr %6, align 8, !tbaa !4
  store ptr %1, ptr %7, align 8, !tbaa !104
  store i32 %2, ptr %8, align 4, !tbaa !12
  store ptr %3, ptr %9, align 8, !tbaa !106
  call void @llvm.lifetime.start.p0(i64 8, ptr %10) #7
  %18 = load ptr, ptr %6, align 8, !tbaa !4
  %19 = getelementptr inbounds nuw %struct.AVFilterContext, ptr %18, i32 0, i32 9
  %20 = load ptr, ptr %19, align 8, !tbaa !14
  store ptr %20, ptr %10, align 8, !tbaa !25
  call void @llvm.lifetime.start.p0(i64 8, ptr %11) #7
  call void @llvm.lifetime.start.p0(i64 4, ptr %12) #7
  call void @llvm.lifetime.start.p0(i64 4, ptr %13) #7
  %21 = load i32, ptr %8, align 4, !tbaa !12
  %22 = sext i32 %21 to i64
  %23 = call ptr @av_malloc_array(i64 noundef %22, i64 noundef 4)
  store ptr %23, ptr %11, align 8, !tbaa !134
  %24 = load ptr, ptr %11, align 8, !tbaa !134
  %25 = icmp ne ptr %24, null
  br i1 %25, label %27, label %26

26:                                               ; preds = %4
  store i32 -12, ptr %5, align 4
  store i32 1, ptr %14, align 4
  br label %166

27:                                               ; preds = %4
  call void @llvm.lifetime.start.p0(i64 4, ptr %15) #7
  store i32 0, ptr %15, align 4, !tbaa !12
  br label %28

28:                                               ; preds = %38, %27
  %29 = load i32, ptr %15, align 4, !tbaa !12
  %30 = load i32, ptr %8, align 4, !tbaa !12
  %31 = icmp slt i32 %29, %30
  br i1 %31, label %33, label %32

32:                                               ; preds = %28
  store i32 2, ptr %14, align 4
  call void @llvm.lifetime.end.p0(i64 4, ptr %15) #7
  br label %41

33:                                               ; preds = %28
  %34 = load ptr, ptr %11, align 8, !tbaa !134
  %35 = load i32, ptr %15, align 4, !tbaa !12
  %36 = sext i32 %35 to i64
  %37 = getelementptr inbounds i32, ptr %34, i64 %36
  store i32 -1, ptr %37, align 4, !tbaa !12
  br label %38

38:                                               ; preds = %33
  %39 = load i32, ptr %15, align 4, !tbaa !12
  %40 = add nsw i32 %39, 1
  store i32 %40, ptr %15, align 4, !tbaa !12
  br label %28, !llvm.loop !172

41:                                               ; preds = %32
  %42 = load ptr, ptr %10, align 8, !tbaa !25
  %43 = getelementptr inbounds nuw %struct.VAAPIVPPContext, ptr %42, i32 0, i32 1
  %44 = load ptr, ptr %43, align 8, !tbaa !33
  %45 = getelementptr inbounds nuw %struct.AVVAAPIDeviceContext, ptr %44, i32 0, i32 0
  %46 = load ptr, ptr %45, align 8, !tbaa !34
  %47 = load ptr, ptr %10, align 8, !tbaa !25
  %48 = getelementptr inbounds nuw %struct.VAAPIVPPContext, ptr %47, i32 0, i32 5
  %49 = load i32, ptr %48, align 8, !tbaa !38
  %50 = load ptr, ptr %9, align 8, !tbaa !106
  %51 = call i32 @ff_vaapi_vpp_get_surface_id(ptr noundef %50)
  %52 = call i32 @vaBeginPicture(ptr noundef %46, i32 noundef %49, i32 noundef %51)
  store i32 %52, ptr %12, align 4, !tbaa !12
  %53 = load i32, ptr %12, align 4, !tbaa !12
  %54 = icmp ne i32 %53, 0
  br i1 %54, label %55, label %60

55:                                               ; preds = %41
  %56 = load ptr, ptr %6, align 8, !tbaa !4
  %57 = load i32, ptr %12, align 4, !tbaa !12
  %58 = load i32, ptr %12, align 4, !tbaa !12
  %59 = call ptr @vaErrorStr(i32 noundef %58)
  call void (ptr, i32, ptr, ...) @av_log(ptr noundef %56, i32 noundef 16, ptr noundef @.str.20, i32 noundef %57, ptr noundef %59)
  store i32 -5, ptr %13, align 4, !tbaa !12
  br label %164

60:                                               ; preds = %41
  call void @llvm.lifetime.start.p0(i64 4, ptr %16) #7
  store i32 0, ptr %16, align 4, !tbaa !12
  br label %61

61:                                               ; preds = %81, %60
  %62 = load i32, ptr %16, align 4, !tbaa !12
  %63 = load i32, ptr %8, align 4, !tbaa !12
  %64 = icmp slt i32 %62, %63
  br i1 %64, label %66, label %65

65:                                               ; preds = %61
  store i32 6, ptr %14, align 4
  br label %84

66:                                               ; preds = %61
  %67 = load ptr, ptr %6, align 8, !tbaa !4
  %68 = load ptr, ptr %7, align 8, !tbaa !104
  %69 = load i32, ptr %16, align 4, !tbaa !12
  %70 = sext i32 %69 to i64
  %71 = getelementptr inbounds %struct._VAProcPipelineParameterBuffer, ptr %68, i64 %70
  %72 = load ptr, ptr %11, align 8, !tbaa !134
  %73 = load i32, ptr %16, align 4, !tbaa !12
  %74 = sext i32 %73 to i64
  %75 = getelementptr inbounds i32, ptr %72, i64 %74
  %76 = call i32 @vaapi_vpp_render_single_pipeline_buffer(ptr noundef %67, ptr noundef %71, ptr noundef %75)
  store i32 %76, ptr %13, align 4, !tbaa !12
  %77 = load i32, ptr %13, align 4, !tbaa !12
  %78 = icmp ne i32 %77, 0
  br i1 %78, label %79, label %80

79:                                               ; preds = %66
  store i32 9, ptr %14, align 4
  br label %84

80:                                               ; preds = %66
  br label %81

81:                                               ; preds = %80
  %82 = load i32, ptr %16, align 4, !tbaa !12
  %83 = add nsw i32 %82, 1
  store i32 %83, ptr %16, align 4, !tbaa !12
  br label %61, !llvm.loop !173

84:                                               ; preds = %79, %65
  call void @llvm.lifetime.end.p0(i64 4, ptr %16) #7
  %85 = load i32, ptr %14, align 4
  switch i32 %85, label %166 [
    i32 6, label %86
    i32 9, label %142
  ]

86:                                               ; preds = %84
  %87 = load ptr, ptr %10, align 8, !tbaa !25
  %88 = getelementptr inbounds nuw %struct.VAAPIVPPContext, ptr %87, i32 0, i32 1
  %89 = load ptr, ptr %88, align 8, !tbaa !33
  %90 = getelementptr inbounds nuw %struct.AVVAAPIDeviceContext, ptr %89, i32 0, i32 0
  %91 = load ptr, ptr %90, align 8, !tbaa !34
  %92 = load ptr, ptr %10, align 8, !tbaa !25
  %93 = getelementptr inbounds nuw %struct.VAAPIVPPContext, ptr %92, i32 0, i32 5
  %94 = load i32, ptr %93, align 8, !tbaa !38
  %95 = call i32 @vaEndPicture(ptr noundef %91, i32 noundef %94)
  store i32 %95, ptr %12, align 4, !tbaa !12
  %96 = load i32, ptr %12, align 4, !tbaa !12
  %97 = icmp ne i32 %96, 0
  br i1 %97, label %98, label %103

98:                                               ; preds = %86
  %99 = load ptr, ptr %6, align 8, !tbaa !4
  %100 = load i32, ptr %12, align 4, !tbaa !12
  %101 = load i32, ptr %12, align 4, !tbaa !12
  %102 = call ptr @vaErrorStr(i32 noundef %101)
  call void (ptr, i32, ptr, ...) @av_log(ptr noundef %99, i32 noundef 16, ptr noundef @.str.21, i32 noundef %100, ptr noundef %102)
  store i32 -5, ptr %13, align 4, !tbaa !12
  br label %154

103:                                              ; preds = %86
  call void @llvm.lifetime.start.p0(i64 4, ptr %17) #7
  store i32 0, ptr %17, align 4, !tbaa !12
  br label %104

104:                                              ; preds = %138, %103
  %105 = load i32, ptr %17, align 4, !tbaa !12
  %106 = load i32, ptr %8, align 4, !tbaa !12
  %107 = icmp slt i32 %105, %106
  br i1 %107, label %108, label %115

108:                                              ; preds = %104
  %109 = load ptr, ptr %11, align 8, !tbaa !134
  %110 = load i32, ptr %17, align 4, !tbaa !12
  %111 = sext i32 %110 to i64
  %112 = getelementptr inbounds i32, ptr %109, i64 %111
  %113 = load i32, ptr %112, align 4, !tbaa !12
  %114 = icmp ne i32 %113, -1
  br label %115

115:                                              ; preds = %108, %104
  %116 = phi i1 [ false, %104 ], [ %114, %108 ]
  br i1 %116, label %118, label %117

117:                                              ; preds = %115
  store i32 11, ptr %14, align 4
  call void @llvm.lifetime.end.p0(i64 4, ptr %17) #7
  br label %141

118:                                              ; preds = %115
  %119 = load ptr, ptr %10, align 8, !tbaa !25
  %120 = getelementptr inbounds nuw %struct.VAAPIVPPContext, ptr %119, i32 0, i32 1
  %121 = load ptr, ptr %120, align 8, !tbaa !33
  %122 = getelementptr inbounds nuw %struct.AVVAAPIDeviceContext, ptr %121, i32 0, i32 0
  %123 = load ptr, ptr %122, align 8, !tbaa !34
  %124 = load ptr, ptr %11, align 8, !tbaa !134
  %125 = load i32, ptr %17, align 4, !tbaa !12
  %126 = sext i32 %125 to i64
  %127 = getelementptr inbounds i32, ptr %124, i64 %126
  %128 = load i32, ptr %127, align 4, !tbaa !12
  %129 = call i32 @vaDestroyBuffer(ptr noundef %123, i32 noundef %128)
  store i32 %129, ptr %12, align 4, !tbaa !12
  %130 = load i32, ptr %12, align 4, !tbaa !12
  %131 = icmp ne i32 %130, 0
  br i1 %131, label %132, label %137

132:                                              ; preds = %118
  %133 = load ptr, ptr %6, align 8, !tbaa !4
  %134 = load i32, ptr %12, align 4, !tbaa !12
  %135 = load i32, ptr %12, align 4, !tbaa !12
  %136 = call ptr @vaErrorStr(i32 noundef %135)
  call void (ptr, i32, ptr, ...) @av_log(ptr noundef %133, i32 noundef 16, ptr noundef @.str.22, i32 noundef %134, ptr noundef %136)
  br label %137

137:                                              ; preds = %132, %118
  br label %138

138:                                              ; preds = %137
  %139 = load i32, ptr %17, align 4, !tbaa !12
  %140 = add nsw i32 %139, 1
  store i32 %140, ptr %17, align 4, !tbaa !12
  br label %104, !llvm.loop !174

141:                                              ; preds = %117
  call void @av_freep(ptr noundef %11)
  store i32 0, ptr %5, align 4
  store i32 1, ptr %14, align 4
  br label %166

142:                                              ; preds = %84
  %143 = load ptr, ptr %10, align 8, !tbaa !25
  %144 = getelementptr inbounds nuw %struct.VAAPIVPPContext, ptr %143, i32 0, i32 1
  %145 = load ptr, ptr %144, align 8, !tbaa !33
  %146 = getelementptr inbounds nuw %struct.AVVAAPIDeviceContext, ptr %145, i32 0, i32 0
  %147 = load ptr, ptr %146, align 8, !tbaa !34
  %148 = load ptr, ptr %10, align 8, !tbaa !25
  %149 = getelementptr inbounds nuw %struct.VAAPIVPPContext, ptr %148, i32 0, i32 5
  %150 = load i32, ptr %149, align 8, !tbaa !38
  %151 = load ptr, ptr %11, align 8, !tbaa !134
  %152 = getelementptr inbounds i32, ptr %151, i64 0
  %153 = call i32 @vaRenderPicture(ptr noundef %147, i32 noundef %150, ptr noundef %152, i32 noundef 1)
  br label %154

154:                                              ; preds = %142, %98
  %155 = load ptr, ptr %10, align 8, !tbaa !25
  %156 = getelementptr inbounds nuw %struct.VAAPIVPPContext, ptr %155, i32 0, i32 1
  %157 = load ptr, ptr %156, align 8, !tbaa !33
  %158 = getelementptr inbounds nuw %struct.AVVAAPIDeviceContext, ptr %157, i32 0, i32 0
  %159 = load ptr, ptr %158, align 8, !tbaa !34
  %160 = load ptr, ptr %10, align 8, !tbaa !25
  %161 = getelementptr inbounds nuw %struct.VAAPIVPPContext, ptr %160, i32 0, i32 5
  %162 = load i32, ptr %161, align 8, !tbaa !38
  %163 = call i32 @vaEndPicture(ptr noundef %159, i32 noundef %162)
  br label %164

164:                                              ; preds = %154, %55
  call void @av_freep(ptr noundef %11)
  %165 = load i32, ptr %13, align 4, !tbaa !12
  store i32 %165, ptr %5, align 4
  store i32 1, ptr %14, align 4
  br label %166

166:                                              ; preds = %164, %141, %84, %26
  call void @llvm.lifetime.end.p0(i64 4, ptr %13) #7
  call void @llvm.lifetime.end.p0(i64 4, ptr %12) #7
  call void @llvm.lifetime.end.p0(i64 8, ptr %11) #7
  call void @llvm.lifetime.end.p0(i64 8, ptr %10) #7
  %167 = load i32, ptr %5, align 4
  ret i32 %167
}