; Function Attrs: nounwind uwtable
define range(i32 -12, 1) i32 @ff_vaapi_vpp_render_pictures(ptr noundef %0, ptr noundef %1, i32 noundef %2, ptr noundef readonly captures(none) %3) local_unnamed_addr #0 {
  %5 = alloca ptr, align 8
  %6 = getelementptr inbounds nuw i8, ptr %0, i64 72
  %7 = load ptr, ptr %6, align 8, !tbaa !4
  call void @llvm.lifetime.start.p0(i64 8, ptr nonnull %5) #7
  %8 = sext i32 %2 to i64
  %9 = tail call ptr @av_malloc_array(i64 noundef %8, i64 noundef 4) #7
  store ptr %9, ptr %5, align 8, !tbaa !137
  %.not = icmp eq ptr %9, null
  br i1 %.not, label %70, label %.preheader65

.preheader65:                                     ; preds = %4
  %10 = icmp sgt i32 %2, 0
  br i1 %10, label %.lr.ph.preheader, label %._crit_edge

.lr.ph.preheader:                                 ; preds = %.preheader65
  %11 = zext nneg i32 %2 to i64
  %12 = shl nuw nsw i64 %11, 2
  tail call void @llvm.memset.p0.i64(ptr nonnull align 4 %9, i8 -1, i64 %12, i1 false), !tbaa !26
  br label %._crit_edge

._crit_edge:                                      ; preds = %.lr.ph.preheader, %.preheader65
  %13 = getelementptr inbounds nuw i8, ptr %7, i64 8
  %14 = load ptr, ptr %13, align 8, !tbaa !27
  %15 = load ptr, ptr %14, align 8, !tbaa !28
  %16 = getelementptr inbounds nuw i8, ptr %7, i64 32
  %17 = load i32, ptr %16, align 8, !tbaa !32
  %18 = getelementptr i8, ptr %3, i64 24
  %.val = load ptr, ptr %18, align 8, !tbaa !105
  %19 = ptrtoint ptr %.val to i64
  %20 = trunc i64 %19 to i32
  %21 = tail call i32 @vaBeginPicture(ptr noundef %15, i32 noundef %17, i32 noundef %20) #7
  %.not55 = icmp eq i32 %21, 0
  br i1 %.not55, label %.preheader64, label %22

.preheader64:                                     ; preds = %._crit_edge
  br i1 %10, label %.lr.ph72, label %._crit_edge73

.lr.ph72:                                         ; preds = %.preheader64
  %wide.trip.count = zext nneg i32 %2 to i64
  br label %25

22:                                               ; preds = %._crit_edge
  %23 = tail call ptr @vaErrorStr(i32 noundef %21) #7
  tail call void (ptr, i32, ptr, ...) @av_log(ptr noundef nonnull %0, i32 noundef 16, ptr noundef nonnull @.str.20, i32 noundef %21, ptr noundef %23) #7
  br label %.sink.split

24:                                               ; preds = %vaapi_vpp_render_single_pipeline_buffer.exit
  %indvars.iv.next = add nuw nsw i64 %indvars.iv, 1
  %exitcond.not = icmp eq i64 %indvars.iv.next, %wide.trip.count
  br i1 %exitcond.not, label %._crit_edge73, label %25, !llvm.loop !138

25:                                               ; preds = %.lr.ph72, %24
  %indvars.iv = phi i64 [ 0, %.lr.ph72 ], [ %indvars.iv.next, %24 ]
  %26 = getelementptr inbounds nuw %struct._VAProcPipelineParameterBuffer, ptr %1, i64 %indvars.iv
  %27 = getelementptr inbounds nuw i32, ptr %9, i64 %indvars.iv
  %28 = load ptr, ptr %6, align 8, !tbaa !4
  %29 = getelementptr inbounds nuw i8, ptr %28, i64 8
  %30 = load ptr, ptr %29, align 8, !tbaa !27
  %31 = load ptr, ptr %30, align 8, !tbaa !28
  %32 = getelementptr inbounds nuw i8, ptr %28, i64 32
  %33 = load i32, ptr %32, align 8, !tbaa !32
  %34 = tail call i32 @vaCreateBuffer(ptr noundef %31, i32 noundef %33, i32 noundef 41, i32 noundef 224, i32 noundef 1, ptr noundef %26, ptr noundef nonnull %27) #7
  %.not.i = icmp eq i32 %34, 0
  br i1 %.not.i, label %vaapi_vpp_render_single_pipeline_buffer.exit, label %35

35:                                               ; preds = %25
  %36 = tail call ptr @vaErrorStr(i32 noundef %34) #7
  tail call void (ptr, i32, ptr, ...) @av_log(ptr noundef nonnull %0, i32 noundef 16, ptr noundef nonnull @.str.28, i32 noundef %34, ptr noundef %36) #7
  store i32 -1, ptr %27, align 4, !tbaa !26
  br label %60

vaapi_vpp_render_single_pipeline_buffer.exit:     ; preds = %25
  %37 = load i32, ptr %27, align 4, !tbaa !26
  tail call void (ptr, i32, ptr, ...) @av_log(ptr noundef nonnull %0, i32 noundef 48, ptr noundef nonnull @.str.29, i32 noundef %37) #7
  %38 = load ptr, ptr %29, align 8, !tbaa !27
  %39 = load ptr, ptr %38, align 8, !tbaa !28
  %40 = load i32, ptr %32, align 8, !tbaa !32
  %41 = tail call i32 @vaRenderPicture(ptr noundef %39, i32 noundef %40, ptr noundef nonnull %27, i32 noundef 1) #7
  %.not21.i = icmp eq i32 %41, 0
  br i1 %.not21.i, label %24, label %42

42:                                               ; preds = %vaapi_vpp_render_single_pipeline_buffer.exit
  %43 = tail call ptr @vaErrorStr(i32 noundef %41) #7
  tail call void (ptr, i32, ptr, ...) @av_log(ptr noundef nonnull %0, i32 noundef 16, ptr noundef nonnull @.str.30, i32 noundef %41, ptr noundef %43) #7
  br label %60

._crit_edge73:                                    ; preds = %24, %.preheader64
  %44 = load ptr, ptr %13, align 8, !tbaa !27
  %45 = load ptr, ptr %44, align 8, !tbaa !28
  %46 = load i32, ptr %16, align 8, !tbaa !32
  %47 = tail call i32 @vaEndPicture(ptr noundef %45, i32 noundef %46) #7
  %.not57 = icmp eq i32 %47, 0
  br i1 %.not57, label %.preheader, label %48

.preheader:                                       ; preds = %._crit_edge73
  br i1 %10, label %.lr.ph75, label %.sink.split

.lr.ph75:                                         ; preds = %.preheader
  %wide.trip.count89 = zext nneg i32 %2 to i64
  br label %50

48:                                               ; preds = %._crit_edge73
  %49 = tail call ptr @vaErrorStr(i32 noundef %47) #7
  tail call void (ptr, i32, ptr, ...) @av_log(ptr noundef nonnull %0, i32 noundef 16, ptr noundef nonnull @.str.21, i32 noundef %47, ptr noundef %49) #7
  br label %65

50:                                               ; preds = %.lr.ph75, %59
  %indvars.iv86 = phi i64 [ 0, %.lr.ph75 ], [ %indvars.iv.next87, %59 ]
  %51 = getelementptr inbounds nuw i32, ptr %9, i64 %indvars.iv86
  %52 = load i32, ptr %51, align 4, !tbaa !26
  %.not58 = icmp eq i32 %52, -1
  br i1 %.not58, label %.sink.split, label %53

53:                                               ; preds = %50
  %54 = load ptr, ptr %13, align 8, !tbaa !27
  %55 = load ptr, ptr %54, align 8, !tbaa !28
  %56 = tail call i32 @vaDestroyBuffer(ptr noundef %55, i32 noundef %52) #7
  %.not59 = icmp eq i32 %56, 0
  br i1 %.not59, label %59, label %57

57:                                               ; preds = %53
  %58 = tail call ptr @vaErrorStr(i32 noundef %56) #7
  tail call void (ptr, i32, ptr, ...) @av_log(ptr noundef %0, i32 noundef 16, ptr noundef nonnull @.str.22, i32 noundef %56, ptr noundef %58) #7
  br label %59

59:                                               ; preds = %53, %57
  %indvars.iv.next87 = add nuw nsw i64 %indvars.iv86, 1
  %exitcond90.not = icmp eq i64 %indvars.iv.next87, %wide.trip.count89
  br i1 %exitcond90.not, label %.sink.split, label %50, !llvm.loop !139

60:                                               ; preds = %42, %35
  %61 = load ptr, ptr %13, align 8, !tbaa !27
  %62 = load ptr, ptr %61, align 8, !tbaa !28
  %63 = load i32, ptr %16, align 8, !tbaa !32
  %64 = tail call i32 @vaRenderPicture(ptr noundef %62, i32 noundef %63, ptr noundef nonnull %9, i32 noundef 1) #7
  br label %65

65:                                               ; preds = %60, %48
  %66 = load ptr, ptr %13, align 8, !tbaa !27
  %67 = load ptr, ptr %66, align 8, !tbaa !28
  %68 = load i32, ptr %16, align 8, !tbaa !32
  %69 = tail call i32 @vaEndPicture(ptr noundef %67, i32 noundef %68) #7
  br label %.sink.split

.sink.split:                                      ; preds = %59, %50, %22, %65, %.preheader
  %.047.ph = phi i32 [ 0, %.preheader ], [ -5, %65 ], [ -5, %22 ], [ 0, %50 ], [ 0, %59 ]
  call void @av_freep(ptr noundef nonnull %5) #7
  br label %70

70:                                               ; preds = %.sink.split, %4
  %.047 = phi i32 [ -12, %4 ], [ %.047.ph, %.sink.split ]
  call void @llvm.lifetime.end.p0(i64 8, ptr nonnull %5) #7
  ret i32 %.047
}